; ModuleID = 'source-C-CXX/41/1042.cpp'
source_filename = "source-C-CXX/41/1042.cpp"
target datalayout = "e-m:e-p270:32:32-p271:32:32-p272:64:64-i64:64-f80:128-n8:16:32:64-S128"
target triple = "x86_64-pc-linux-gnu"

%"class.std::ios_base::Init" = type { i8 }
%"class.std::basic_istream" = type { i32 (...)**, i64, %"class.std::basic_ios" }
%"class.std::basic_ios" = type { %"class.std::ios_base", %"class.std::basic_ostream"*, i8, i8, %"class.std::basic_streambuf"*, %"class.std::ctype"*, %"class.std::num_put"*, %"class.std::num_get"* }
%"class.std::ios_base" = type { i32 (...)**, i64, i64, i32, i32, i32, %"struct.std::ios_base::_Callback_list"*, %"struct.std::ios_base::_Words", [8 x %"struct.std::ios_base::_Words"], i32, %"struct.std::ios_base::_Words"*, %"class.std::locale" }
%"struct.std::ios_base::_Callback_list" = type { %"struct.std::ios_base::_Callback_list"*, void (i32, %"class.std::ios_base"*, i32)*, i32, i32 }
%"struct.std::ios_base::_Words" = type { i8*, i64 }
%"class.std::locale" = type { %"class.std::locale::_Impl"* }
%"class.std::locale::_Impl" = type { i32, %"class.std::locale::facet"**, i64, %"class.std::locale::facet"**, i8** }
%"class.std::locale::facet" = type <{ i32 (...)**, i32, [4 x i8] }>
%"class.std::basic_ostream" = type { i32 (...)**, %"class.std::basic_ios" }
%"class.std::basic_streambuf" = type { i32 (...)**, i8*, i8*, i8*, i8*, i8*, i8*, %"class.std::locale" }
%"class.std::ctype" = type <{ %"class.std::locale::facet.base", [4 x i8], %struct.__locale_struct*, i8, [7 x i8], i32*, i32*, i16*, i8, [256 x i8], [256 x i8], i8, [6 x i8] }>
%"class.std::locale::facet.base" = type <{ i32 (...)**, i32 }>
%struct.__locale_struct = type { [13 x %struct.__locale_data*], i16*, i32*, i32*, [13 x i8*] }
%struct.__locale_data = type opaque
%"class.std::num_put" = type { %"class.std::locale::facet.base", [4 x i8] }
%"class.std::num_get" = type { %"class.std::locale::facet.base", [4 x i8] }

@_ZStL8__ioinit = internal global %"class.std::ios_base::Init" zeroinitializer, align 1
@__dso_handle = external hidden global i8
@_ZSt3cin = external global %"class.std::basic_istream", align 8
@_ZSt4cout = external global %"class.std::basic_ostream", align 8
@.str = private unnamed_addr constant [2 x i8] c" \00", align 1
@llvm.global_ctors = appending global [1 x { i32, void ()*, i8* }] [{ i32, void ()*, i8* } { i32 65535, void ()* @_GLOBAL__sub_I_1042.cpp, i8* null }]

declare void @_ZNSt8ios_base4InitC1Ev(%"class.std::ios_base::Init"* nonnull align 1 dereferenceable(1)) unnamed_addr #0

; Function Attrs: nounwind
declare void @_ZNSt8ios_base4InitD1Ev(%"class.std::ios_base::Init"* nonnull align 1 dereferenceable(1)) unnamed_addr #1

; Function Attrs: nofree nounwind
declare i32 @__cxa_atexit(void (i8*)*, i8*, i8*) local_unnamed_addr #2

; Function Attrs: mustprogress norecurse sspstrong uwtable
define dso_local i32 @main() local_unnamed_addr #3 {
  %1 = alloca i32, align 4
  %2 = alloca i32, align 4
  %3 = alloca [100000 x i32], align 16
  %4 = bitcast i32* %1 to i8*
  call void @llvm.lifetime.start.p0i8(i64 4, i8* nonnull %4) #6
  %5 = bitcast i32* %2 to i8*
  call void @llvm.lifetime.start.p0i8(i64 4, i8* nonnull %5) #6
  %6 = call nonnull align 8 dereferenceable(16) %"class.std::basic_istream"* @_ZNSirsERi(%"class.std::basic_istream"* nonnull align 8 dereferenceable(16) @_ZSt3cin, i32* nonnull align 4 dereferenceable(4) %1)
  %7 = bitcast [100000 x i32]* %3 to i8*
  call void @llvm.lifetime.start.p0i8(i64 400000, i8* nonnull %7) #6
  %8 = load i32, i32* %1, align 4, !tbaa !5
  %9 = icmp sgt i32 %8, 0
  br i1 %9, label %10, label %18

10:                                               ; preds = %0, %10
  %11 = phi i64 [ %14, %10 ], [ 0, %0 ]
  %12 = getelementptr inbounds [100000 x i32], [100000 x i32]* %3, i64 0, i64 %11
  %13 = call nonnull align 8 dereferenceable(16) %"class.std::basic_istream"* @_ZNSirsERi(%"class.std::basic_istream"* nonnull align 8 dereferenceable(16) @_ZSt3cin, i32* nonnull align 4 dereferenceable(4) %12)
  %14 = add nuw nsw i64 %11, 1
  %15 = load i32, i32* %1, align 4, !tbaa !5
  %16 = sext i32 %15 to i64
  %17 = icmp slt i64 %14, %16
  br i1 %17, label %10, label %18, !llvm.loop !9

18:                                               ; preds = %10, %0
  %19 = call nonnull align 8 dereferenceable(16) %"class.std::basic_istream"* @_ZNSirsERi(%"class.std::basic_istream"* nonnull align 8 dereferenceable(16) @_ZSt3cin, i32* nonnull align 4 dereferenceable(4) %2)
  %20 = load i32, i32* %1, align 4, !tbaa !5
  %21 = load i32, i32* %2, align 4
  %22 = icmp sgt i32 %20, 0
  br i1 %22, label %30, label %23

23:                                               ; preds = %116, %18
  %24 = phi i32 [ 0, %18 ], [ %118, %116 ]
  %25 = xor i32 %24, -1
  %26 = add i32 %20, %25
  %27 = icmp sgt i32 %26, 0
  br i1 %27, label %126, label %28

28:                                               ; preds = %23
  %29 = sext i32 %26 to i64
  br label %121

30:                                               ; preds = %18, %116
  %31 = phi i32 [ %119, %116 ], [ %20, %18 ]
  %32 = phi i32 [ %118, %116 ], [ 0, %18 ]
  %33 = phi i32 [ %117, %116 ], [ 0, %18 ]
  %34 = sext i32 %33 to i64
  %35 = getelementptr inbounds [100000 x i32], [100000 x i32]* %3, i64 0, i64 %34
  %36 = load i32, i32* %35, align 4, !tbaa !5
  %37 = icmp eq i32 %36, %21
  br i1 %37, label %38, label %114

38:                                               ; preds = %30
  %39 = icmp slt i32 %33, %31
  br i1 %39, label %40, label %112

40:                                               ; preds = %38
  %41 = sext i32 %31 to i64
  %42 = sub nsw i64 %41, %34
  %43 = icmp ult i64 %42, 8
  br i1 %43, label %103, label %44

44:                                               ; preds = %40
  %45 = and i64 %42, -8
  %46 = add nsw i64 %45, %34
  %47 = add nsw i64 %45, -8
  %48 = lshr exact i64 %47, 3
  %49 = add nuw nsw i64 %48, 1
  %50 = and i64 %49, 1
  %51 = icmp eq i64 %47, 0
  br i1 %51, label %85, label %52

52:                                               ; preds = %44
  %53 = and i64 %49, 4611686018427387902
  br label %54

54:                                               ; preds = %54, %52
  %55 = phi i64 [ 0, %52 ], [ %82, %54 ]
  %56 = phi i64 [ %53, %52 ], [ %83, %54 ]
  %57 = add i64 %55, %34
  %58 = add nsw i64 %57, 1
  %59 = getelementptr inbounds [100000 x i32], [100000 x i32]* %3, i64 0, i64 %58
  %60 = bitcast i32* %59 to <4 x i32>*
  %61 = load <4 x i32>, <4 x i32>* %60, align 4, !tbaa !5
  %62 = getelementptr inbounds i32, i32* %59, i64 4
  %63 = bitcast i32* %62 to <4 x i32>*
  %64 = load <4 x i32>, <4 x i32>* %63, align 4, !tbaa !5
  %65 = getelementptr inbounds [100000 x i32], [100000 x i32]* %3, i64 0, i64 %57
  %66 = bitcast i32* %65 to <4 x i32>*
  store <4 x i32> %61, <4 x i32>* %66, align 4, !tbaa !5
  %67 = getelementptr inbounds i32, i32* %65, i64 4
  %68 = bitcast i32* %67 to <4 x i32>*
  store <4 x i32> %64, <4 x i32>* %68, align 4, !tbaa !5
  %69 = or i64 %55, 8
  %70 = add i64 %69, %34
  %71 = add nsw i64 %70, 1
  %72 = getelementptr inbounds [100000 x i32], [100000 x i32]* %3, i64 0, i64 %71
  %73 = bitcast i32* %72 to <4 x i32>*
  %74 = load <4 x i32>, <4 x i32>* %73, align 4, !tbaa !5
  %75 = getelementptr inbounds i32, i32* %72, i64 4
  %76 = bitcast i32* %75 to <4 x i32>*
  %77 = load <4 x i32>, <4 x i32>* %76, align 4, !tbaa !5
  %78 = getelementptr inbounds [100000 x i32], [100000 x i32]* %3, i64 0, i64 %70
  %79 = bitcast i32* %78 to <4 x i32>*
  store <4 x i32> %74, <4 x i32>* %79, align 4, !tbaa !5
  %80 = getelementptr inbounds i32, i32* %78, i64 4
  %81 = bitcast i32* %80 to <4 x i32>*
  store <4 x i32> %77, <4 x i32>* %81, align 4, !tbaa !5
  %82 = add nuw i64 %55, 16
  %83 = add i64 %56, -2
  %84 = icmp eq i64 %83, 0
  br i1 %84, label %85, label %54, !llvm.loop !11

85:                                               ; preds = %54, %44
  %86 = phi i64 [ 0, %44 ], [ %82, %54 ]
  %87 = icmp eq i64 %50, 0
  br i1 %87, label %101, label %88

88:                                               ; preds = %85
  %89 = add i64 %86, %34
  %90 = add nsw i64 %89, 1
  %91 = getelementptr inbounds [100000 x i32], [100000 x i32]* %3, i64 0, i64 %90
  %92 = bitcast i32* %91 to <4 x i32>*
  %93 = load <4 x i32>, <4 x i32>* %92, align 4, !tbaa !5
  %94 = getelementptr inbounds i32, i32* %91, i64 4
  %95 = bitcast i32* %94 to <4 x i32>*
  %96 = load <4 x i32>, <4 x i32>* %95, align 4, !tbaa !5
  %97 = getelementptr inbounds [100000 x i32], [100000 x i32]* %3, i64 0, i64 %89
  %98 = bitcast i32* %97 to <4 x i32>*
  store <4 x i32> %93, <4 x i32>* %98, align 4, !tbaa !5
  %99 = getelementptr inbounds i32, i32* %97, i64 4
  %100 = bitcast i32* %99 to <4 x i32>*
  store <4 x i32> %96, <4 x i32>* %100, align 4, !tbaa !5
  br label %101

101:                                              ; preds = %85, %88
  %102 = icmp eq i64 %42, %45
  br i1 %102, label %112, label %103

103:                                              ; preds = %40, %101
  %104 = phi i64 [ %34, %40 ], [ %46, %101 ]
  br label %105

105:                                              ; preds = %103, %105
  %106 = phi i64 [ %107, %105 ], [ %104, %103 ]
  %107 = add nsw i64 %106, 1
  %108 = getelementptr inbounds [100000 x i32], [100000 x i32]* %3, i64 0, i64 %107
  %109 = load i32, i32* %108, align 4, !tbaa !5
  %110 = getelementptr inbounds [100000 x i32], [100000 x i32]* %3, i64 0, i64 %106
  store i32 %109, i32* %110, align 4, !tbaa !5
  %111 = icmp eq i64 %107, %41
  br i1 %111, label %112, label %105, !llvm.loop !13

112:                                              ; preds = %105, %101, %38
  %113 = add nsw i32 %32, 1
  br label %116

114:                                              ; preds = %30
  %115 = add nsw i32 %33, 1
  br label %116

116:                                              ; preds = %114, %112
  %117 = phi i32 [ %33, %112 ], [ %115, %114 ]
  %118 = phi i32 [ %113, %112 ], [ %32, %114 ]
  %119 = sub nsw i32 %20, %118
  %120 = icmp slt i32 %117, %119
  br i1 %120, label %30, label %23, !llvm.loop !15

121:                                              ; preds = %126, %28
  %122 = phi i64 [ %29, %28 ], [ %135, %126 ]
  %123 = getelementptr inbounds [100000 x i32], [100000 x i32]* %3, i64 0, i64 %122
  %124 = load i32, i32* %123, align 4, !tbaa !5
  %125 = call nonnull align 8 dereferenceable(8) %"class.std::basic_ostream"* @_ZNSolsEi(%"class.std::basic_ostream"* nonnull align 8 dereferenceable(8) @_ZSt4cout, i32 %124)
  call void @llvm.lifetime.end.p0i8(i64 400000, i8* nonnull %7) #6
  call void @llvm.lifetime.end.p0i8(i64 4, i8* nonnull %5) #6
  call void @llvm.lifetime.end.p0i8(i64 4, i8* nonnull %4) #6
  ret i32 0

126:                                              ; preds = %23, %126
  %127 = phi i64 [ %132, %126 ], [ 0, %23 ]
  %128 = getelementptr inbounds [100000 x i32], [100000 x i32]* %3, i64 0, i64 %127
  %129 = load i32, i32* %128, align 4, !tbaa !5
  %130 = call nonnull align 8 dereferenceable(8) %"class.std::basic_ostream"* @_ZNSolsEi(%"class.std::basic_ostream"* nonnull align 8 dereferenceable(8) @_ZSt4cout, i32 %129)
  %131 = call nonnull align 8 dereferenceable(8) %"class.std::basic_ostream"* @_ZSt16__ostream_insertIcSt11char_traitsIcEERSt13basic_ostreamIT_T0_ES6_PKS3_l(%"class.std::basic_ostream"* nonnull align 8 dereferenceable(8) %130, i8* nonnull getelementptr inbounds ([2 x i8], [2 x i8]* @.str, i64 0, i64 0), i64 1)
  %132 = add nuw nsw i64 %127, 1
  %133 = load i32, i32* %1, align 4, !tbaa !5
  %134 = add i32 %133, %25
  %135 = sext i32 %134 to i64
  %136 = icmp slt i64 %132, %135
  br i1 %136, label %126, label %121, !llvm.loop !16
}

; Function Attrs: argmemonly mustprogress nofree nosync nounwind willreturn
declare void @llvm.lifetime.start.p0i8(i64 immarg, i8* nocapture) #4

declare nonnull align 8 dereferenceable(16) %"class.std::basic_istream"* @_ZNSirsERi(%"class.std::basic_istream"* nonnull align 8 dereferenceable(16), i32* nonnull align 4 dereferenceable(4)) local_unnamed_addr #0

declare nonnull align 8 dereferenceable(8) %"class.std::basic_ostream"* @_ZNSolsEi(%"class.std::basic_ostream"* nonnull align 8 dereferenceable(8), i32) local_unnamed_addr #0

; Function Attrs: argmemonly mustprogress nofree nosync nounwind willreturn
declare void @llvm.lifetime.end.p0i8(i64 immarg, i8* nocapture) #4

declare nonnull align 8 dereferenceable(8) %"class.std::basic_ostream"* @_ZSt16__ostream_insertIcSt11char_traitsIcEERSt13basic_ostreamIT_T0_ES6_PKS3_l(%"class.std::basic_ostream"* nonnull align 8 dereferenceable(8), i8*, i64) local_unnamed_addr #0

; Function Attrs: sspstrong uwtable
define internal void @_GLOBAL__sub_I_1042.cpp() #5 section ".text.startup" {
  tail call void @_ZNSt8ios_base4InitC1Ev(%"class.std::ios_base::Init"* nonnull align 1 dereferenceable(1) @_ZStL8__ioinit)
  %1 = tail call i32 @__cxa_atexit(void (i8*)* bitcast (void (%"class.std::ios_base::Init"*)* @_ZNSt8ios_base4InitD1Ev to void (i8*)*), i8* getelementptr inbounds (%"class.std::ios_base::Init", %"class.std::ios_base::Init"* @_ZStL8__ioinit, i64 0, i32 0), i8* nonnull @__dso_handle) #6
  ret void
}


!llvm.module.flags = !{!0, !1, !2, !3}
!llvm.ident = !{!4}

!0 = !{i32 1, !"wchar_size", i32 4}
!1 = !{i32 7, !"PIC Level", i32 2}
!2 = !{i32 7, !"PIE Level", i32 2}
!3 = !{i32 7, !"uwtable", i32 1}
!4 = !{!"clang version 13.0.0"}
!5 = !{!6, !6, i64 0}
!6 = !{!"int", !7, i64 0}
!7 = !{!"omnipotent char", !8, i64 0}
!8 = !{!"Simple C++ TBAA"}
!9 = distinct !{!9, !10}
!10 = !{!"llvm.loop.mustprogress"}
!11 = distinct !{!11, !10, !12}
!12 = !{!"llvm.loop.isvectorized", i32 1}
!13 = distinct !{!13, !10, !14, !12}
!14 = !{!"llvm.loop.unroll.runtime.disable"}
!15 = distinct !{!15, !10}
!16 = distinct !{!16, !10}
